Certificate:
    Data:
        Version: 3 (0x2)
        Serial Number: 5 (0x5)
    Signature Algorithm: sha1WithRSAEncryption
        Issuer: C=ES, ST=ES, L=Barcelona, O=Qustodio, CN=Qustodio CA/emailAddress=cloud@qustodio.com
        Validity
            Not Before: Jun 15 08:09:04 2016 GMT
            Not After : Jun 13 08:09:04 2026 GMT
        Subject: C=ES, ST=ES, L=Barcelona, O=Qustodio, CN=clientD/emailAddress=cloud@qustodio.com
        Subject Public Key Info:
            Public Key Algorithm: rsaEncryption
                Public-Key: (1024 bit)
                Modulus:
                    00:c4:6a:cc:b4:34:9e:19:f5:e2:42:97:de:98:b4:
                    32:f7:22:0d:d8:46:d6:d4:a7:5f:6d:55:b0:29:54:
                    f3:7b:41:15:6f:36:9f:d1:ce:ec:b3:b9:fb:4d:9a:
                    7b:93:d4:ec:f8:a5:cb:a6:05:52:5f:eb:74:fa:f3:
                    ef:1a:19:fe:3a:e1:3e:c0:e1:f8:9f:96:d1:64:c5:
                    af:27:5e:b2:24:6d:51:05:97:a1:2e:95:ef:f1:28:
                    80:0a:15:c6:64:51:12:e4:a8:4b:38:23:ec:9c:1f:
                    3c:3e:94:73:d0:f7:11:d6:65:29:97:e6:24:f1:cd:
                    81:3f:a5:cb:7e:6b:0f:99:0d
                Exponent: 65537 (0x10001)
        X509v3 extensions:
            X509v3 Basic Constraints: 
                CA:FALSE
            Netscape Comment: 
                Easy-RSA Generated Certificate
            X509v3 Subject Key Identifier: 
                AE:56:2B:7B:29:3F:A1:5F:75:1D:30:9B:97:15:65:C0:68:67:33:62
            X509v3 Authority Key Identifier: 
                keyid:06:71:97:89:2C:58:3D:45:B5:5F:8C:6E:C6:A3:E4:04:BE:08:79:93
                DirName:/C=ES/ST=ES/L=Barcelona/O=Qustodio/CN=Qustodio CA/emailAddress=cloud@qustodio.com
                serial:8E:DE:2D:6B:5C:88:21:70

            X509v3 Extended Key Usage: 
                TLS Web Client Authentication
            X509v3 Key Usage: 
                Digital Signature
    Signature Algorithm: sha1WithRSAEncryption
         92:2c:aa:f5:d3:07:4e:4a:ca:07:b4:75:11:da:04:e1:04:58:
         a5:1a:c7:f4:ae:37:e3:1e:53:69:d5:47:89:01:83:bd:b4:2b:
         d2:be:d0:a6:d9:75:a6:51:1a:7f:cb:79:36:e2:17:a1:c5:2f:
         b3:b0:4f:3c:c5:25:01:a5:22:69:f1:de:b5:d3:48:dc:1b:81:
         e3:91:b9:7c:d6:fc:16:c6:0f:2e:06:8e:ef:84:35:47:e7:2e:
         96:ba:7a:52:8d:a2:fd:04:19:4e:2b:1e:7d:7a:a2:48:df:98:
         43:42:2f:61:af:e6:96:7b:e7:cf:88:6e:7d:b9:f8:72:5c:45:
         3b:c5
-----BEGIN CERTIFICATE-----
MIIDljCCAv+gAwIBAgIBBTANBgkqhkiG9w0BAQUFADB6MQswCQYDVQQGEwJFUzEL
MAkGA1UECBMCRVMxEjAQBgNVBAcTCUJhcmNlbG9uYTERMA8GA1UEChMIUXVzdG9k
aW8xFDASBgNVBAMTC1F1c3RvZGlvIENBMSEwHwYJKoZIhvcNAQkBFhJjbG91ZEBx
dXN0b2Rpby5jb20wHhcNMTYwNjE1MDgwOTA0WhcNMjYwNjEzMDgwOTA0WjB2MQsw
CQYDVQQGEwJFUzELMAkGA1UECBMCRVMxEjAQBgNVBAcTCUJhcmNlbG9uYTERMA8G
A1UEChMIUXVzdG9kaW8xEDAOBgNVBAMTB2NsaWVudEQxITAfBgkqhkiG9w0BCQEW
EmNsb3VkQHF1c3RvZGlvLmNvbTCBnzANBgkqhkiG9w0BAQEFAAOBjQAwgYkCgYEA
xGrMtDSeGfXiQpfemLQy9yIN2EbW1KdfbVWwKVTze0EVbzaf0c7ss7n7TZp7k9Ts
+KXLpgVSX+t0+vPvGhn+OuE+wOH4n5bRZMWvJ16yJG1RBZehLpXv8SiAChXGZFES
5KhLOCPsnB88PpRz0PcR1mUpl+Yk8c2BP6XLfmsPmQ0CAwEAAaOCAS4wggEqMAkG
A1UdEwQCMAAwLQYJYIZIAYb4QgENBCAWHkVhc3ktUlNBIEdlbmVyYXRlZCBDZXJ0
aWZpY2F0ZTAdBgNVHQ4EFgQUrlYreyk/oV91HTCblxVlwGhnM2IwgawGA1UdIwSB
pDCBoYAUBnGXiSxYPUW1X4xuxqPkBL4IeZOhfqR8MHoxCzAJBgNVBAYTAkVTMQsw
CQYDVQQIEwJFUzESMBAGA1UEBxMJQmFyY2Vsb25hMREwDwYDVQQKEwhRdXN0b2Rp
bzEUMBIGA1UEAxMLUXVzdG9kaW8gQ0ExITAfBgkqhkiG9w0BCQEWEmNsb3VkQHF1
c3RvZGlvLmNvbYIJAI7eLWtciCFwMBMGA1UdJQQMMAoGCCsGAQUFBwMCMAsGA1Ud
DwQEAwIHgDANBgkqhkiG9w0BAQUFAAOBgQCSLKr10wdOSsoHtHUR2gThBFilGsf0
rjfjHlNp1UeJAYO9tCvSvtCm2XWmURp/y3k24hehxS+zsE88xSUBpSJp8d6100jc
G4Hjkbl81vwWxg8uBo7vhDVH5y6WunpSjaL9BBlOKx59eqJI35hDQi9hr+aWe+fP
iG59ufhyXEU7xQ==
-----END CERTIFICATE-----
